; Function Attrs: nounwind uwtable
define ptr @l_Lean_activateScoped___at_Lean_Elab_OpenDecl_elabOpenDecl___spec__78___rarg___lambda__1(ptr noundef %0, ptr noundef %1, ptr noundef %2, ptr noundef %3, ptr noundef %4, ptr noundef %5) #0 {
  %7 = getelementptr i8, ptr %5, i64 8
  %.val = load i64, ptr %7, align 8, !tbaa !16
  %8 = ptrtoint ptr %5 to i64
  %9 = and i64 %8, 1
  %.not = icmp eq i64 %9, 0
  br i1 %.not, label %10, label %lean_inc.exit21

10:                                               ; preds = %6
  %.val.i = load i32, ptr %5, align 4, !tbaa !8
  %11 = icmp sgt i32 %.val.i, 0
  br i1 %11, label %12, label %14, !prof !11

12:                                               ; preds = %10
  %13 = add nuw i32 %.val.i, 1
  store i32 %13, ptr %5, align 4, !tbaa !8
  br label %lean_inc.exit21

14:                                               ; preds = %10
  %.not.i = icmp eq i32 %.val.i, 0
  br i1 %.not.i, label %lean_inc.exit21, label %15

15:                                               ; preds = %14
  tail call void @lean_inc_ref_cold(ptr noundef nonnull %5) #6
  br label %lean_inc.exit21

lean_inc.exit21:                                  ; preds = %15, %14, %12, %6
  %16 = ptrtoint ptr %3 to i64
  %17 = and i64 %16, 1
  %.not28 = icmp eq i64 %17, 0
  br i1 %.not28, label %18, label %lean_inc.exit20

18:                                               ; preds = %lean_inc.exit21
  %.val.i22 = load i32, ptr %3, align 4, !tbaa !8
  %19 = icmp sgt i32 %.val.i22, 0
  br i1 %19, label %20, label %22, !prof !11

20:                                               ; preds = %18
  %21 = add nuw i32 %.val.i22, 1
  store i32 %21, ptr %3, align 4, !tbaa !8
  br label %lean_inc.exit20

22:                                               ; preds = %18
  %.not.i23 = icmp eq i32 %.val.i22, 0
  br i1 %.not.i23, label %lean_inc.exit20, label %23

23:                                               ; preds = %22
  tail call void @lean_inc_ref_cold(ptr noundef nonnull %3) #6
  br label %lean_inc.exit20

lean_inc.exit20:                                  ; preds = %23, %22, %20, %lean_inc.exit21
  %24 = ptrtoint ptr %0 to i64
  %25 = and i64 %24, 1
  %.not29 = icmp eq i64 %25, 0
  br i1 %.not29, label %26, label %lean_inc.exit

26:                                               ; preds = %lean_inc.exit20
  %.val.i25 = load i32, ptr %0, align 4, !tbaa !8
  %27 = icmp sgt i32 %.val.i25, 0
  br i1 %27, label %28, label %30, !prof !11

28:                                               ; preds = %26
  %29 = add nuw i32 %.val.i25, 1
  store i32 %29, ptr %0, align 4, !tbaa !8
  br label %lean_inc.exit

30:                                               ; preds = %26
  %.not.i26 = icmp eq i32 %.val.i25, 0
  br i1 %.not.i26, label %lean_inc.exit, label %31

31:                                               ; preds = %30
  tail call void @lean_inc_ref_cold(ptr noundef nonnull %0) #6
  br label %lean_inc.exit

lean_inc.exit:                                    ; preds = %31, %30, %28, %lean_inc.exit20
  %32 = tail call ptr @l_Array_forIn_x27Unsafe_loop___at_Lean_Elab_OpenDecl_elabOpenDecl___spec__79___rarg(ptr noundef %0, ptr noundef %1, ptr noundef %2, ptr noundef %3, ptr noundef nonnull %5, ptr noundef nonnull inttoptr (i64 1 to ptr), ptr noundef nonnull %5, i64 noundef %.val, i64 noundef 0, ptr noundef nonnull inttoptr (i64 1 to ptr), ptr noundef %4)
  tail call void @lean_inc_heartbeat() #6
  %33 = tail call noalias ptr @mi_malloc_small(i64 noundef 32) #6
  %34 = icmp eq ptr %33, null
  br i1 %34, label %35, label %lean_alloc_closure.exit

35:                                               ; preds = %lean_inc.exit
  tail call void @lean_internal_panic_out_of_memory() #7
  unreachable

lean_alloc_closure.exit:                          ; preds = %lean_inc.exit
  %36 = getelementptr inbounds nuw i8, ptr %33, i64 4
  store i32 1, ptr %33, align 4, !tbaa !8
  store i32 -184549344, ptr %36, align 4
  %37 = getelementptr inbounds nuw i8, ptr %33, i64 8
  store ptr @l_Lean_activateScoped___at_Lean_Elab_OpenDecl_elabOpenDecl___spec__43___rarg___lambda__1___boxed, ptr %37, align 8, !tbaa !4
  %38 = getelementptr inbounds nuw i8, ptr %33, i64 16
  store i16 2, ptr %38, align 8, !tbaa !12
  %39 = getelementptr inbounds nuw i8, ptr %33, i64 18
  store i16 1, ptr %39, align 2, !tbaa !12
  %40 = getelementptr inbounds nuw i8, ptr %33, i64 24
  store ptr %0, ptr %40, align 8, !tbaa !4
  %41 = tail call ptr @lean_apply_4(ptr noundef %3, ptr noundef nonnull inttoptr (i64 1 to ptr), ptr noundef nonnull inttoptr (i64 1 to ptr), ptr noundef %32, ptr noundef nonnull %33) #6
  ret ptr %41
}